target datalayout = "e-m:e-p270:32:32-p271:32:32-p272:64:64-i64:64-i128:128-f80:128-n8:16:32:64-S128"
target triple = "x86_64-pc-linux-gnu"

; Function Attrs: inlinehint mustprogress nounwind uwtable
define internal noundef signext i8 @_ZL19isMatchAtCPBoundaryPKDsS0_S0_S0_(ptr noundef %0, ptr noundef %1, ptr noundef %2, ptr noundef %3) #2 {
  %5 = alloca i8, align 1
  %6 = alloca ptr, align 8
  %7 = alloca ptr, align 8
  %8 = alloca ptr, align 8
  %9 = alloca ptr, align 8
  store ptr %0, ptr %6, align 8, !tbaa !3
  store ptr %1, ptr %7, align 8, !tbaa !3
  store ptr %2, ptr %8, align 8, !tbaa !3
  store ptr %3, ptr %9, align 8, !tbaa !3
  %10 = load ptr, ptr %7, align 8, !tbaa !3
  %11 = load i16, ptr %10, align 2, !tbaa !10
  %12 = zext i16 %11 to i32
  %13 = and i32 %12, -1024
  %14 = icmp eq i32 %13, 56320
  br i1 %14, label %15, label %27

15:                                               ; preds = %4
  %16 = load ptr, ptr %6, align 8, !tbaa !3
  %17 = load ptr, ptr %7, align 8, !tbaa !3
  %18 = icmp ne ptr %16, %17
  br i1 %18, label %19, label %27

19:                                               ; preds = %15
  %20 = load ptr, ptr %7, align 8, !tbaa !3
  %21 = getelementptr inbounds i16, ptr %20, i64 -1
  %22 = load i16, ptr %21, align 2, !tbaa !10
  %23 = zext i16 %22 to i32
  %24 = and i32 %23, -1024
  %25 = icmp eq i32 %24, 55296
  br i1 %25, label %26, label %27

26:                                               ; preds = %19
  store i8 0, ptr %5, align 1
  br label %46

27:                                               ; preds = %19, %15, %4
  %28 = load ptr, ptr %8, align 8, !tbaa !3
  %29 = getelementptr inbounds i16, ptr %28, i64 -1
  %30 = load i16, ptr %29, align 2, !tbaa !10
  %31 = zext i16 %30 to i32
  %32 = and i32 %31, -1024
  %33 = icmp eq i32 %32, 55296
  br i1 %33, label %34, label %45

34:                                               ; preds = %27
  %35 = load ptr, ptr %8, align 8, !tbaa !3
  %36 = load ptr, ptr %9, align 8, !tbaa !3
  %37 = icmp ne ptr %35, %36
  br i1 %37, label %38, label %45

38:                                               ; preds = %34
  %39 = load ptr, ptr %8, align 8, !tbaa !3
  %40 = load i16, ptr %39, align 2, !tbaa !10
  %41 = zext i16 %40 to i32
  %42 = and i32 %41, -1024
  %43 = icmp eq i32 %42, 56320
  br i1 %43, label %44, label %45

44:                                               ; preds = %38
  store i8 0, ptr %5, align 1
  br label %46

45:                                               ; preds = %38, %34, %27
  store i8 1, ptr %5, align 1
  br label %46

46:                                               ; preds = %45, %44, %26
  %47 = load i8, ptr %5, align 1
  ret i8 %47
}