; Function Attrs: inlinehint mustprogress nofree norecurse nosync nounwind willreturn memory(argmem: read) uwtable
define internal fastcc noundef signext range(i8 0, 2) i8 @_ZL19isMatchAtCPBoundaryPKDsS0_S0_S0_(ptr noundef nonnull readnone %0, ptr noundef nonnull readonly %1, ptr noundef nonnull readonly %2, ptr noundef readnone %3) unnamed_addr #3 {
  %5 = load i16, ptr %1, align 2, !tbaa !3
  %6 = and i16 %5, -1024
  %7 = icmp ne i16 %6, -9216
  %.not = icmp eq ptr %0, %1
  %or.cond = or i1 %.not, %7
  br i1 %or.cond, label %13, label %8

8:                                                ; preds = %4
  %9 = getelementptr inbounds i8, ptr %1, i64 -2
  %10 = load i16, ptr %9, align 2, !tbaa !3
  %11 = and i16 %10, -1024
  %12 = icmp eq i16 %11, -10240
  br i1 %12, label %23, label %13

13:                                               ; preds = %8, %4
  %14 = getelementptr inbounds i8, ptr %2, i64 -2
  %15 = load i16, ptr %14, align 2, !tbaa !3
  %16 = and i16 %15, -1024
  %17 = icmp ne i16 %16, -10240
  %.not10 = icmp eq ptr %2, %3
  %or.cond11 = or i1 %.not10, %17
  br i1 %or.cond11, label %22, label %18

18:                                               ; preds = %13
  %19 = load i16, ptr %2, align 2, !tbaa !3
  %20 = and i16 %19, -1024
  %21 = icmp eq i16 %20, -9216
  br i1 %21, label %23, label %22

22:                                               ; preds = %18, %13
  br label %23

23:                                               ; preds = %18, %8, %22
  %.0 = phi i8 [ 1, %22 ], [ 0, %8 ], [ 0, %18 ]
  ret i8 %.0
}